target datalayout = "e-m:e-p270:32:32-p271:32:32-p272:64:64-i64:64-i128:128-f80:128-n8:16:32:64-S128"
target triple = "x86_64-pc-linux-gnu"

%struct.fdt_header = type { i32, i32, i32, i32, i32, i32, i32, i32, i32, i32 }

; Function Attrs: inlinehint nounwind uwtable
define internal i32 @fdt32_ld(ptr noundef %0) #2 {
  %2 = alloca ptr, align 8
  %3 = alloca ptr, align 8
  store ptr %0, ptr %2, align 8, !tbaa !9
  call void @llvm.lifetime.start.p0(i64 8, ptr %3) #5
  %4 = load ptr, ptr %2, align 8, !tbaa !9
  store ptr %4, ptr %3, align 8, !tbaa !11
  %5 = load ptr, ptr %3, align 8, !tbaa !11
  %6 = getelementptr inbounds i8, ptr %5, i64 0
  %7 = load i8, ptr %6, align 1, !tbaa !13
  %8 = zext i8 %7 to i32
  %9 = shl i32 %8, 24
  %10 = load ptr, ptr %3, align 8, !tbaa !11
  %11 = getelementptr inbounds i8, ptr %10, i64 1
  %12 = load i8, ptr %11, align 1, !tbaa !13
  %13 = zext i8 %12 to i32
  %14 = shl i32 %13, 16
  %15 = or i32 %9, %14
  %16 = load ptr, ptr %3, align 8, !tbaa !11
  %17 = getelementptr inbounds i8, ptr %16, i64 2
  %18 = load i8, ptr %17, align 1, !tbaa !13
  %19 = zext i8 %18 to i32
  %20 = shl i32 %19, 8
  %21 = or i32 %15, %20
  %22 = load ptr, ptr %3, align 8, !tbaa !11
  %23 = getelementptr inbounds i8, ptr %22, i64 3
  %24 = load i8, ptr %23, align 1, !tbaa !13
  %25 = zext i8 %24 to i32
  %26 = or i32 %21, %25
  call void @llvm.lifetime.end.p0(i64 8, ptr %3) #5
  ret i32 %26
}

; Function Attrs: nounwind uwtable
define i32 @fdt_ro_probe_(ptr noundef %0) #0 {
  %2 = alloca i32, align 4
  %3 = alloca ptr, align 8
  %4 = alloca i32, align 4
  %5 = alloca i32, align 4
  store ptr %0, ptr %3, align 8, !tbaa !3
  call void @llvm.lifetime.start.p0(i64 4, ptr %4) #5
  %6 = load ptr, ptr %3, align 8, !tbaa !3
  %7 = getelementptr inbounds nuw %struct.fdt_header, ptr %6, i32 0, i32 1
  %8 = call i32 @fdt32_ld(ptr noundef %7)
  store i32 %8, ptr %4, align 4, !tbaa !7
  %9 = load ptr, ptr %3, align 8, !tbaa !3
  %10 = getelementptr inbounds nuw %struct.fdt_header, ptr %9, i32 0, i32 0
  %11 = call i32 @fdt32_ld(ptr noundef %10)
  %12 = icmp eq i32 %11, -804389139
  br i1 %12, label %13, label %26

13:                                               ; preds = %1
  %14 = load ptr, ptr %3, align 8, !tbaa !3
  %15 = getelementptr inbounds nuw %struct.fdt_header, ptr %14, i32 0, i32 5
  %16 = call i32 @fdt32_ld(ptr noundef %15)
  %17 = icmp ult i32 %16, 2
  br i1 %17, label %18, label %19

18:                                               ; preds = %13
  store i32 -10, ptr %2, align 4
  store i32 1, ptr %5, align 4
  br label %46

19:                                               ; preds = %13
  %20 = load ptr, ptr %3, align 8, !tbaa !3
  %21 = getelementptr inbounds nuw %struct.fdt_header, ptr %20, i32 0, i32 6
  %22 = call i32 @fdt32_ld(ptr noundef %21)
  %23 = icmp ugt i32 %22, 17
  br i1 %23, label %24, label %25

24:                                               ; preds = %19
  store i32 -10, ptr %2, align 4
  store i32 1, ptr %5, align 4
  br label %46

25:                                               ; preds = %19
  br label %40

26:                                               ; preds = %1
  %27 = load ptr, ptr %3, align 8, !tbaa !3
  %28 = getelementptr inbounds nuw %struct.fdt_header, ptr %27, i32 0, i32 0
  %29 = call i32 @fdt32_ld(ptr noundef %28)
  %30 = icmp eq i32 %29, 804389138
  br i1 %30, label %31, label %38

31:                                               ; preds = %26
  %32 = load ptr, ptr %3, align 8, !tbaa !3
  %33 = getelementptr inbounds nuw %struct.fdt_header, ptr %32, i32 0, i32 9
  %34 = call i32 @fdt32_ld(ptr noundef %33)
  %35 = icmp eq i32 %34, 0
  br i1 %35, label %36, label %37

36:                                               ; preds = %31
  store i32 -7, ptr %2, align 4
  store i32 1, ptr %5, align 4
  br label %46

37:                                               ; preds = %31
  br label %39

38:                                               ; preds = %26
  store i32 -9, ptr %2, align 4
  store i32 1, ptr %5, align 4
  br label %46

39:                                               ; preds = %37
  br label %40

40:                                               ; preds = %39, %25
  %41 = load i32, ptr %4, align 4, !tbaa !7
  %42 = icmp ult i32 %41, 2147483647
  br i1 %42, label %43, label %45

43:                                               ; preds = %40
  %44 = load i32, ptr %4, align 4, !tbaa !7
  store i32 %44, ptr %2, align 4
  store i32 1, ptr %5, align 4
  br label %46

45:                                               ; preds = %40
  store i32 -8, ptr %2, align 4
  store i32 1, ptr %5, align 4
  br label %46

46:                                               ; preds = %45, %43, %38, %36, %24, %18
  call void @llvm.lifetime.end.p0(i64 4, ptr %4) #5
  %47 = load i32, ptr %2, align 4
  ret i32 %47
}