; Function Attrs: mustprogress nofree norecurse nosync nounwind willreturn memory(argmem: read) uwtable
define range(i32 -10, 2147483647) i32 @fdt_ro_probe_(ptr noundef readonly captures(none) %0) local_unnamed_addr #0 {
  %2 = getelementptr inbounds nuw i8, ptr %0, i64 4
  %3 = load i8, ptr %2, align 1, !tbaa !3
  %4 = zext i8 %3 to i32
  %5 = shl nuw i32 %4, 24
  %6 = getelementptr inbounds nuw i8, ptr %0, i64 5
  %7 = load i8, ptr %6, align 1, !tbaa !3
  %8 = zext i8 %7 to i32
  %9 = shl nuw nsw i32 %8, 16
  %10 = or disjoint i32 %9, %5
  %11 = getelementptr inbounds nuw i8, ptr %0, i64 6
  %12 = load i8, ptr %11, align 1, !tbaa !3
  %13 = zext i8 %12 to i32
  %14 = shl nuw nsw i32 %13, 8
  %15 = or disjoint i32 %10, %14
  %16 = getelementptr inbounds nuw i8, ptr %0, i64 7
  %17 = load i8, ptr %16, align 1, !tbaa !3
  %18 = zext i8 %17 to i32
  %19 = or disjoint i32 %15, %18
  %20 = load i8, ptr %0, align 1, !tbaa !3
  %21 = zext i8 %20 to i32
  %22 = shl nuw i32 %21, 24
  %23 = getelementptr inbounds nuw i8, ptr %0, i64 1
  %24 = load i8, ptr %23, align 1, !tbaa !3
  %25 = zext i8 %24 to i32
  %26 = shl nuw nsw i32 %25, 16
  %27 = or disjoint i32 %26, %22
  %28 = getelementptr inbounds nuw i8, ptr %0, i64 2
  %29 = load i8, ptr %28, align 1, !tbaa !3
  %30 = zext i8 %29 to i32
  %31 = shl nuw nsw i32 %30, 8
  %32 = or disjoint i32 %27, %31
  %33 = getelementptr inbounds nuw i8, ptr %0, i64 3
  %34 = load i8, ptr %33, align 1, !tbaa !3
  %35 = zext i8 %34 to i32
  %36 = or disjoint i32 %32, %35
  switch i32 %36, label %99 [
    i32 -804389139, label %37
    i32 804389138, label %77
  ]

37:                                               ; preds = %1
  %38 = getelementptr inbounds nuw i8, ptr %0, i64 20
  %39 = load i8, ptr %38, align 1, !tbaa !3
  %40 = zext i8 %39 to i32
  %41 = shl nuw i32 %40, 24
  %42 = getelementptr inbounds nuw i8, ptr %0, i64 21
  %43 = load i8, ptr %42, align 1, !tbaa !3
  %44 = zext i8 %43 to i32
  %45 = shl nuw nsw i32 %44, 16
  %46 = or disjoint i32 %45, %41
  %47 = getelementptr inbounds nuw i8, ptr %0, i64 22
  %48 = load i8, ptr %47, align 1, !tbaa !3
  %49 = zext i8 %48 to i32
  %50 = shl nuw nsw i32 %49, 8
  %51 = or disjoint i32 %46, %50
  %52 = getelementptr inbounds nuw i8, ptr %0, i64 23
  %53 = load i8, ptr %52, align 1, !tbaa !3
  %54 = zext i8 %53 to i32
  %55 = or disjoint i32 %51, %54
  %56 = icmp ult i32 %55, 2
  br i1 %56, label %99, label %57

57:                                               ; preds = %37
  %58 = getelementptr inbounds nuw i8, ptr %0, i64 24
  %59 = load i8, ptr %58, align 1, !tbaa !3
  %60 = zext i8 %59 to i32
  %61 = shl nuw i32 %60, 24
  %62 = getelementptr inbounds nuw i8, ptr %0, i64 25
  %63 = load i8, ptr %62, align 1, !tbaa !3
  %64 = zext i8 %63 to i32
  %65 = shl nuw nsw i32 %64, 16
  %66 = or disjoint i32 %65, %61
  %67 = getelementptr inbounds nuw i8, ptr %0, i64 26
  %68 = load i8, ptr %67, align 1, !tbaa !3
  %69 = zext i8 %68 to i32
  %70 = shl nuw nsw i32 %69, 8
  %71 = or disjoint i32 %66, %70
  %72 = getelementptr inbounds nuw i8, ptr %0, i64 27
  %73 = load i8, ptr %72, align 1, !tbaa !3
  %74 = zext i8 %73 to i32
  %75 = or disjoint i32 %71, %74
  %76 = icmp ugt i32 %75, 17
  br i1 %76, label %99, label %97

77:                                               ; preds = %1
  %78 = getelementptr inbounds nuw i8, ptr %0, i64 36
  %79 = load i8, ptr %78, align 1, !tbaa !3
  %80 = zext i8 %79 to i32
  %81 = shl nuw i32 %80, 24
  %82 = getelementptr inbounds nuw i8, ptr %0, i64 37
  %83 = load i8, ptr %82, align 1, !tbaa !3
  %84 = zext i8 %83 to i32
  %85 = shl nuw nsw i32 %84, 16
  %86 = or disjoint i32 %85, %81
  %87 = getelementptr inbounds nuw i8, ptr %0, i64 38
  %88 = load i8, ptr %87, align 1, !tbaa !3
  %89 = zext i8 %88 to i32
  %90 = shl nuw nsw i32 %89, 8
  %91 = or disjoint i32 %86, %90
  %92 = getelementptr inbounds nuw i8, ptr %0, i64 39
  %93 = load i8, ptr %92, align 1, !tbaa !3
  %94 = zext i8 %93 to i32
  %95 = or disjoint i32 %91, %94
  %96 = icmp eq i32 %95, 0
  br i1 %96, label %99, label %97

97:                                               ; preds = %77, %57
  %98 = icmp ult i32 %19, 2147483647
  %. = select i1 %98, i32 %19, i32 -8
  br label %99

99:                                               ; preds = %1, %97, %77, %57, %37
  %.0 = phi i32 [ -10, %37 ], [ -10, %57 ], [ -7, %77 ], [ %., %97 ], [ -9, %1 ]
  ret i32 %.0
}